Certificate:
    Data:
        Version: 3 (0x2)
        Serial Number:
            fb:0f:5b:16:b7:d0:9e:83:50:46:3d:47:ce:22:45:78
        Signature Algorithm: sha256WithRSAEncryption
        Issuer: CN=ChangeMe
        Validity
            Not Before: Nov 22 19:26:44 2025 GMT
            Not After : Feb 25 19:26:44 2028 GMT
        Subject: CN=vpn-server-dns
        Subject Public Key Info:
            Public Key Algorithm: rsaEncryption
                RSA Public-Key: (2048 bit)
                Modulus:
                    00:c1:9f:c9:dd:e4:07:2b:ac:59:2b:e1:aa:69:1e:
                    fd:b7:d2:c7:9f:f5:ed:48:9e:98:a3:f1:7f:32:94:
                    8d:d2:39:30:d5:b3:27:50:04:3a:72:c7:a1:57:1b:
                    54:db:50:78:4f:e4:94:a9:32:78:29:60:b4:80:b2:
                    a7:85:e6:d8:1b:f9:8a:60:fa:d6:02:b4:c0:8e:32:
                    a8:a3:5f:6e:d8:46:be:c2:5e:18:ec:8a:96:1d:53:
                    6a:72:34:cc:f0:45:53:93:50:4e:6f:1d:bc:99:35:
                    42:5a:7f:b5:d2:d3:40:f4:f9:a8:31:2a:a6:5d:e1:
                    ca:51:94:23:1b:e5:eb:1d:72:52:a2:ea:0a:1e:e2:
                    d6:e1:f4:c7:e9:5d:ab:cf:a4:a0:11:69:97:46:97:
                    34:7e:93:e8:de:7c:51:e6:e1:1d:5f:de:09:63:6a:
                    71:8c:be:9c:10:b5:e1:c5:cc:75:77:37:17:25:d0:
                    69:e9:0f:0b:df:28:e4:91:65:e5:1d:29:df:3d:0c:
                    cd:d7:e5:43:96:25:2e:a7:7f:3b:74:66:4d:60:c9:
                    e6:ba:4d:e8:9f:5b:b0:fe:85:11:07:29:e9:6d:d5:
                    72:fb:96:61:ff:f3:12:57:91:c1:c8:6a:53:a6:e8:
                    a0:66:aa:21:25:24:81:90:65:64:93:df:cd:fb:0d:
                    f8:6d
                Exponent: 65537 (0x10001)
        X509v3 extensions:
            X509v3 Basic Constraints: 
                CA:FALSE
            X509v3 Subject Key Identifier: 
                9F:0A:06:58:66:32:4A:AA:6F:3F:84:F4:94:17:0C:A0:17:34:4F:28
            X509v3 Authority Key Identifier: 
                keyid:F1:0D:DD:7E:9A:79:4B:07:DF:77:F9:61:84:CC:31:CA:D6:07:5B:5F
                DirName:/CN=ChangeMe
                serial:47:82:DB:04:37:D4:27:93:2C:A9:35:A2:34:50:67:4A:CF:05:14:5A

            X509v3 Extended Key Usage: 
                TLS Web Server Authentication
            X509v3 Key Usage: 
                Digital Signature, Key Encipherment
            X509v3 Subject Alternative Name: 
                DNS:vpn-server-dns
    Signature Algorithm: sha256WithRSAEncryption
         56:e6:2b:6d:bb:34:1c:d6:a1:81:0b:55:80:0e:38:64:1a:a4:
         d8:83:69:90:50:d0:1a:80:da:32:a5:d6:d0:c2:d8:94:ca:32:
         bb:19:f7:4a:88:33:6f:fe:91:cb:63:7e:a5:fb:29:45:6c:a2:
         68:06:31:5f:11:6c:b4:0b:5c:50:b9:b8:18:a4:78:5f:f7:ca:
         e8:cf:e1:15:4e:03:58:6f:33:52:5e:78:bc:bd:48:e8:a8:c0:
         51:33:a8:43:41:40:8b:43:4b:93:06:ac:cb:18:f9:5f:b7:5b:
         98:ec:62:ef:67:9b:f3:ed:a0:7a:f7:36:b0:02:d6:dd:7c:0f:
         24:fe:c3:3d:7f:cc:05:59:c9:6c:64:93:59:1f:6c:97:a4:96:
         ac:c5:0e:2f:95:bc:59:cb:38:3e:71:c7:a2:54:79:cc:06:46:
         32:e2:e8:73:99:89:3c:40:9d:f4:3f:e5:01:78:b5:08:5b:4c:
         18:ed:a3:38:24:1a:bb:d9:86:ec:c9:d4:a7:98:1d:06:42:96:
         da:a5:60:fb:04:b7:88:f5:e2:e9:11:15:43:1e:9e:68:4f:92:
         8c:9a:24:61:be:26:12:59:37:19:9e:7f:6c:81:3c:cd:66:24:
         14:e1:a2:55:b2:3d:55:50:50:63:d6:6e:8a:ae:36:25:c4:60:
         13:f2:39:b9
-----BEGIN CERTIFICATE-----
MIIDcjCCAlqgAwIBAgIRAPsPWxa30J6DUEY9R84iRXgwDQYJKoZIhvcNAQELBQAw
EzERMA8GA1UEAwwIQ2hhbmdlTWUwHhcNMjUxMTIyMTkyNjQ0WhcNMjgwMjI1MTky
NjQ0WjAZMRcwFQYDVQQDDA52cG4tc2VydmVyLWRuczCCASIwDQYJKoZIhvcNAQEB
BQADggEPADCCAQoCggEBAMGfyd3kByusWSvhqmke/bfSx5/17UiemKPxfzKUjdI5
MNWzJ1AEOnLHoVcbVNtQeE/klKkyeClgtICyp4Xm2Bv5imD61gK0wI4yqKNfbthG
vsJeGOyKlh1TanI0zPBFU5NQTm8dvJk1Qlp/tdLTQPT5qDEqpl3hylGUIxvl6x1y
UqLqCh7i1uH0x+ldq8+koBFpl0aXNH6T6N58UebhHV/eCWNqcYy+nBC14cXMdXc3
FyXQaekPC98o5JFl5R0p3z0MzdflQ5YlLqd/O3RmTWDJ5rpN6J9bsP6FEQcp6W3V
cvuWYf/zEleRwchqU6booGaqISUkgZBlZJPfzfsN+G0CAwEAAaOBujCBtzAJBgNV
HRMEAjAAMB0GA1UdDgQWBBSfCgZYZjJKqm8/hPSUFwygFzRPKDBOBgNVHSMERzBF
gBTxDd1+mnlLB993+WGEzDHK1gdbX6EXpBUwEzERMA8GA1UEAwwIQ2hhbmdlTWWC
FEeC2wQ31CeTLKk1ojRQZ0rPBRRaMBMGA1UdJQQMMAoGCCsGAQUFBwMBMAsGA1Ud
DwQEAwIFoDAZBgNVHREEEjAQgg52cG4tc2VydmVyLWRuczANBgkqhkiG9w0BAQsF
AAOCAQEAVuYrbbs0HNahgQtVgA44ZBqk2INpkFDQGoDaMqXW0MLYlMoyuxn3Sogz
b/6Ry2N+pfspRWyiaAYxXxFstAtcULm4GKR4X/fK6M/hFU4DWG8zUl54vL1I6KjA
UTOoQ0FAi0NLkwasyxj5X7dbmOxi72eb8+2gevc2sALW3XwPJP7DPX/MBVnJbGST
WR9sl6SWrMUOL5W8Wcs4PnHHolR5zAZGMuLoc5mJPECd9D/lAXi1CFtMGO2jOCQa
u9mG7MnUp5gdBkKW2qVg+wS3iPXi6REVQx6eaE+SjJokYb4mElk3GZ5/bIE8zWYk
FOGiVbI9VVBQY9Zuiq42JcRgE/I5uQ==
-----END CERTIFICATE-----
