Certificate:
    Data:
        Version: 3 (0x2)
        Serial Number:
            41:45:b5:1e:71:a9:75:0d:eb:80:4b:9e:4e:b8:04:c2
        Signature Algorithm: sha256WithRSAEncryption
        Issuer: CN=ChangeMe
        Validity
            Not Before: Nov  8 09:53:24 2025 GMT
            Not After : Feb 11 09:53:24 2028 GMT
        Subject: CN=vpn-server-fr
        Subject Public Key Info:
            Public Key Algorithm: rsaEncryption
                RSA Public-Key: (2048 bit)
                Modulus:
                    00:dd:99:7d:7b:89:1a:9e:d4:c0:a9:e5:34:b2:8e:
                    d1:11:43:6c:39:e9:36:2a:da:e2:1e:a0:c0:59:a9:
                    37:33:9c:75:d0:2f:38:93:66:34:40:89:b4:07:fe:
                    83:cd:8e:de:2b:45:ab:ef:7a:48:60:64:33:87:d1:
                    7a:18:e4:0a:61:f4:ee:5d:87:6a:25:7a:86:09:b1:
                    50:6e:71:64:95:91:bb:a8:39:fc:50:17:15:0a:97:
                    2a:24:7e:7c:d1:d3:bb:8e:38:2e:b4:72:9d:9f:d6:
                    86:f2:36:6f:8c:0d:13:00:fc:a5:28:b4:2f:da:e0:
                    62:9a:0b:45:7d:73:8a:69:62:26:32:74:09:90:b9:
                    a9:72:71:6d:eb:83:f6:0c:63:70:2e:9a:f9:7c:74:
                    7f:11:d2:4a:93:fb:96:31:9e:55:ff:0b:97:cc:24:
                    d8:ee:57:04:ee:88:42:e9:02:d2:e6:26:ce:eb:5d:
                    84:da:1c:61:65:cf:30:7b:34:85:82:16:8b:dc:9b:
                    51:6e:63:35:8a:c8:41:91:9e:49:70:cc:c3:b0:41:
                    e6:91:95:0d:d9:e4:fc:92:03:64:c5:c6:0d:3b:8e:
                    2c:aa:8e:17:aa:ef:21:61:ba:43:1d:98:e2:cc:37:
                    7f:56:98:54:0f:b8:1e:f0:fb:ea:37:b3:41:f6:a6:
                    0d:3d
                Exponent: 65537 (0x10001)
        X509v3 extensions:
            X509v3 Basic Constraints: 
                CA:FALSE
            X509v3 Subject Key Identifier: 
                C1:95:CF:C5:6E:56:A4:D7:67:DE:55:19:11:96:44:7B:3A:3F:6F:BD
            X509v3 Authority Key Identifier: 
                keyid:A6:E7:EC:CF:91:BB:CD:E7:B6:47:79:E1:88:8E:41:1D:23:74:07:80
                DirName:/CN=ChangeMe
                serial:0B:BB:39:00:10:FA:52:22:9D:20:5C:15:D5:F2:38:3B:09:10:4F:F6

            X509v3 Extended Key Usage: 
                TLS Web Server Authentication
            X509v3 Key Usage: 
                Digital Signature, Key Encipherment
            X509v3 Subject Alternative Name: 
                DNS:vpn-server-fr
    Signature Algorithm: sha256WithRSAEncryption
         16:fc:b8:ef:ed:aa:3a:4f:2b:9c:a3:a3:92:a4:ff:2b:d7:b9:
         44:6d:14:fc:a6:25:cf:d2:15:17:c2:b0:c8:fa:b1:81:ae:37:
         9f:81:b6:94:32:e8:dd:9a:43:88:fb:ce:5d:4b:21:ae:62:eb:
         51:f9:4c:9f:15:80:15:16:ac:ba:fe:67:e1:f1:95:9b:f8:17:
         3c:6b:fe:2e:0e:61:cd:f8:fa:51:f8:01:e4:f3:f7:04:8d:03:
         90:3c:f9:87:c5:82:35:71:12:92:83:eb:70:f3:55:55:73:49:
         68:91:a4:5b:80:b4:da:e1:81:20:5d:47:b5:54:f1:d4:4b:8f:
         69:c1:97:e8:df:e8:34:58:d4:b7:45:2d:22:50:58:7f:da:51:
         7f:14:82:e1:8c:df:2c:03:b6:9b:59:55:30:1b:8c:42:8a:59:
         40:b5:78:c2:93:77:51:bb:a6:21:04:bb:23:4a:f2:aa:2d:85:
         da:4c:f8:37:c6:56:a5:14:7b:84:9a:3e:6e:a2:38:11:a6:d7:
         36:d3:1c:d6:d0:06:2c:68:35:d7:cc:35:fb:92:9d:1f:bd:6d:
         bf:20:04:37:8f:c2:7b:7a:ae:ef:d2:6e:d9:00:e4:30:97:d2:
         1e:c6:ad:d4:13:8c:40:5c:f1:7d:98:77:2c:8d:7f:64:ec:ac:
         3a:20:12:38
-----BEGIN CERTIFICATE-----
MIIDbzCCAlegAwIBAgIQQUW1HnGpdQ3rgEueTrgEwjANBgkqhkiG9w0BAQsFADAT
MREwDwYDVQQDDAhDaGFuZ2VNZTAeFw0yNTExMDgwOTUzMjRaFw0yODAyMTEwOTUz
MjRaMBgxFjAUBgNVBAMMDXZwbi1zZXJ2ZXItZnIwggEiMA0GCSqGSIb3DQEBAQUA
A4IBDwAwggEKAoIBAQDdmX17iRqe1MCp5TSyjtERQ2w56TYq2uIeoMBZqTcznHXQ
LziTZjRAibQH/oPNjt4rRavvekhgZDOH0XoY5Aph9O5dh2oleoYJsVBucWSVkbuo
OfxQFxUKlyokfnzR07uOOC60cp2f1obyNm+MDRMA/KUotC/a4GKaC0V9c4ppYiYy
dAmQualycW3rg/YMY3Aumvl8dH8R0kqT+5YxnlX/C5fMJNjuVwTuiELpAtLmJs7r
XYTaHGFlzzB7NIWCFovcm1FuYzWKyEGRnklwzMOwQeaRlQ3Z5PySA2TFxg07jiyq
jheq7yFhukMdmOLMN39WmFQPuB7w++o3s0H2pg09AgMBAAGjgbkwgbYwCQYDVR0T
BAIwADAdBgNVHQ4EFgQUwZXPxW5WpNdn3lUZEZZEezo/b70wTgYDVR0jBEcwRYAU
pufsz5G7zee2R3nhiI5BHSN0B4ChF6QVMBMxETAPBgNVBAMMCENoYW5nZU1lghQL
uzkAEPpSIp0gXBXV8jg7CRBP9jATBgNVHSUEDDAKBggrBgEFBQcDATALBgNVHQ8E
BAMCBaAwGAYDVR0RBBEwD4INdnBuLXNlcnZlci1mcjANBgkqhkiG9w0BAQsFAAOC
AQEAFvy47+2qOk8rnKOjkqT/K9e5RG0U/KYlz9IVF8KwyPqxga43n4G2lDLo3ZpD
iPvOXUshrmLrUflMnxWAFRasuv5n4fGVm/gXPGv+Lg5hzfj6UfgB5PP3BI0DkDz5
h8WCNXESkoPrcPNVVXNJaJGkW4C02uGBIF1HtVTx1EuPacGX6N/oNFjUt0UtIlBY
f9pRfxSC4YzfLAO2m1lVMBuMQopZQLV4wpN3UbumIQS7I0ryqi2F2kz4N8ZWpRR7
hJo+bqI4EabXNtMc1tAGLGg118w1+5KdH71tvyAEN4/Ce3qu79Ju2QDkMJfSHsat
1BOMQFzxfZh3LI1/ZOysOiASOA==
-----END CERTIFICATE-----
