Certificate:
    Data:
        Version: 3 (0x2)
        Serial Number:
            17:67:85:1b:42:18:fd:86:9f:c4:80:97:e0:6b:77:24
        Signature Algorithm: sha256WithRSAEncryption
        Issuer: CN=ChangeMe
        Validity
            Not Before: Nov  8 09:52:19 2025 GMT
            Not After : Feb 11 09:52:19 2028 GMT
        Subject: CN=vpn-server-uk
        Subject Public Key Info:
            Public Key Algorithm: rsaEncryption
                RSA Public-Key: (2048 bit)
                Modulus:
                    00:ef:78:d8:83:17:fb:85:c2:05:f9:9a:71:12:79:
                    e7:70:08:c7:0f:61:75:5d:64:7d:f6:76:ef:82:6f:
                    4c:0d:c5:28:e4:4e:67:1f:84:b9:a5:38:e9:02:9d:
                    c3:5e:b0:1f:77:cf:62:ff:f5:f5:b0:60:95:35:c9:
                    96:8d:c2:32:4d:52:f5:bf:6b:23:28:5c:8e:2d:b0:
                    89:68:46:73:15:62:c3:a8:32:1f:b8:bf:6e:3a:f9:
                    57:9d:89:96:30:c6:45:bd:9d:72:31:59:73:d4:ec:
                    33:fb:fc:0f:11:28:72:06:cf:1b:6d:e7:b7:dc:d9:
                    68:92:e3:ec:7b:63:35:c2:27:a9:c8:96:13:66:fb:
                    c1:7f:84:74:54:c8:53:74:17:df:91:aa:30:36:66:
                    2f:2c:b2:1b:6c:c3:74:3d:36:74:e4:36:5d:f1:cf:
                    71:56:90:15:4e:45:79:d7:8d:b9:04:97:a4:ab:ae:
                    b0:2f:ce:c6:7a:d6:e1:12:67:ec:85:73:f8:94:11:
                    58:72:48:e0:27:d4:6b:ed:c1:fd:d4:56:8c:96:da:
                    a8:3d:2a:45:6f:9f:e5:d2:a8:77:0c:9c:1d:70:c7:
                    f9:a1:aa:50:75:db:ca:e5:5f:20:74:83:3a:41:75:
                    ef:14:24:7e:1f:14:97:1b:7c:6d:6a:4a:e6:d9:66:
                    23:71
                Exponent: 65537 (0x10001)
        X509v3 extensions:
            X509v3 Basic Constraints: 
                CA:FALSE
            X509v3 Subject Key Identifier: 
                CC:24:88:0B:B9:C4:6B:20:32:FA:F3:87:50:1F:5F:85:B3:07:21:9B
            X509v3 Authority Key Identifier: 
                keyid:BC:F0:7E:64:20:C3:49:AD:B8:F5:37:59:46:48:EA:4B:1A:23:A5:05
                DirName:/CN=ChangeMe
                serial:47:58:3B:AA:78:21:82:CB:99:10:DE:8F:DF:08:43:A7:1B:8C:85:EA

            X509v3 Extended Key Usage: 
                TLS Web Server Authentication
            X509v3 Key Usage: 
                Digital Signature, Key Encipherment
            X509v3 Subject Alternative Name: 
                DNS:vpn-server-uk
    Signature Algorithm: sha256WithRSAEncryption
         2c:46:50:2f:ba:d4:35:37:2a:14:bf:9c:23:47:22:dd:14:a4:
         3f:92:c5:77:81:6a:38:89:fc:9e:6e:c8:a7:e3:ad:2a:96:f9:
         42:4a:be:e2:7b:06:f1:f5:67:3c:64:c4:95:46:b0:09:68:eb:
         39:0d:4b:ac:93:97:cc:40:0c:a5:f4:78:3c:80:37:26:e2:8e:
         6f:e9:b4:1e:78:be:ed:30:f7:8a:84:62:4d:4c:08:07:b1:91:
         86:e0:d6:1e:9c:2d:01:d2:4b:cf:df:68:3b:a6:da:43:8e:c4:
         d2:67:9e:35:17:f7:d1:fc:0b:b6:1e:05:27:40:6d:fc:7c:4a:
         60:58:d2:97:7b:cb:e5:a5:20:00:1a:12:0d:1d:15:d2:5f:2a:
         21:9a:af:7a:c4:cc:4d:53:b7:b2:72:31:ad:0d:22:f1:12:fe:
         96:2e:fc:be:49:15:5c:58:23:4e:99:6e:27:fc:d1:28:c3:dc:
         ef:33:76:31:91:a4:c8:3e:79:2a:e5:44:a6:cb:e4:fe:52:15:
         76:f9:7a:f9:20:0a:d3:b5:31:64:5e:7f:e5:7d:e4:39:91:fc:
         cf:61:eb:19:f6:20:8f:96:86:cb:7b:8a:27:0e:9e:90:12:bb:
         01:c3:4b:de:4a:a6:62:f7:36:01:42:08:c7:87:35:a3:32:ee:
         79:e7:b1:c4
-----BEGIN CERTIFICATE-----
MIIDbzCCAlegAwIBAgIQF2eFG0IY/YafxICX4Gt3JDANBgkqhkiG9w0BAQsFADAT
MREwDwYDVQQDDAhDaGFuZ2VNZTAeFw0yNTExMDgwOTUyMTlaFw0yODAyMTEwOTUy
MTlaMBgxFjAUBgNVBAMMDXZwbi1zZXJ2ZXItdWswggEiMA0GCSqGSIb3DQEBAQUA
A4IBDwAwggEKAoIBAQDveNiDF/uFwgX5mnESeedwCMcPYXVdZH32du+Cb0wNxSjk
TmcfhLmlOOkCncNesB93z2L/9fWwYJU1yZaNwjJNUvW/ayMoXI4tsIloRnMVYsOo
Mh+4v246+VediZYwxkW9nXIxWXPU7DP7/A8RKHIGzxtt57fc2WiS4+x7YzXCJ6nI
lhNm+8F/hHRUyFN0F9+RqjA2Zi8sshtsw3Q9NnTkNl3xz3FWkBVORXnXjbkEl6Sr
rrAvzsZ61uESZ+yFc/iUEVhySOAn1Gvtwf3UVoyW2qg9KkVvn+XSqHcMnB1wx/mh
qlB128rlXyB0gzpBde8UJH4fFJcbfG1qSubZZiNxAgMBAAGjgbkwgbYwCQYDVR0T
BAIwADAdBgNVHQ4EFgQUzCSIC7nEayAy+vOHUB9fhbMHIZswTgYDVR0jBEcwRYAU
vPB+ZCDDSa249TdZRkjqSxojpQWhF6QVMBMxETAPBgNVBAMMCENoYW5nZU1lghRH
WDuqeCGCy5kQ3o/fCEOnG4yF6jATBgNVHSUEDDAKBggrBgEFBQcDATALBgNVHQ8E
BAMCBaAwGAYDVR0RBBEwD4INdnBuLXNlcnZlci11azANBgkqhkiG9w0BAQsFAAOC
AQEALEZQL7rUNTcqFL+cI0ci3RSkP5LFd4FqOIn8nm7Ip+OtKpb5Qkq+4nsG8fVn
PGTElUawCWjrOQ1LrJOXzEAMpfR4PIA3JuKOb+m0Hni+7TD3ioRiTUwIB7GRhuDW
HpwtAdJLz99oO6baQ47E0meeNRf30fwLth4FJ0Bt/HxKYFjSl3vL5aUgABoSDR0V
0l8qIZqvesTMTVO3snIxrQ0i8RL+li78vkkVXFgjTpluJ/zRKMPc7zN2MZGkyD55
KuVEpsvk/lIVdvl6+SAK07UxZF5/5X3kOZH8z2HrGfYgj5aGy3uKJw6ekBK7AcNL
3kqmYvc2AUIIx4c1ozLueeexxA==
-----END CERTIFICATE-----
