Certificate:
    Data:
        Version: 3 (0x2)
        Serial Number:
            4f:23:90:09:c1:4d:9e:08:51:83:a3:fe:1c:26:de:fe
        Signature Algorithm: sha256WithRSAEncryption
        Issuer: CN=ChangeMe
        Validity
            Not Before: Nov 22 19:27:43 2025 GMT
            Not After : Feb 25 19:27:43 2028 GMT
        Subject: CN=vpn-server-fr-conflict
        Subject Public Key Info:
            Public Key Algorithm: rsaEncryption
                RSA Public-Key: (2048 bit)
                Modulus:
                    00:f8:98:4f:6a:6a:b9:3a:6c:c9:48:b3:95:9d:35:
                    04:b1:32:37:bf:0e:3a:5f:18:20:6d:8e:3f:32:51:
                    63:10:d8:69:cf:ab:bb:03:ca:98:4a:b0:3f:9c:c9:
                    b9:22:63:92:83:cc:3b:c9:11:fc:2c:81:3d:c6:ae:
                    74:f6:b1:1a:10:ff:27:f4:09:75:11:38:79:41:88:
                    12:c8:24:5f:5d:e9:bd:03:a3:f3:84:8d:ab:34:4e:
                    51:dd:bf:f3:e0:3e:04:64:c9:f3:16:1e:1f:cd:cc:
                    bd:03:c7:08:4d:82:a1:5e:81:ac:d1:5f:54:b9:99:
                    87:28:90:75:94:bf:65:46:f2:fb:75:b8:73:49:c5:
                    66:15:25:96:c3:56:8e:87:24:4b:d7:04:dc:5b:46:
                    27:ce:db:b8:55:9a:6b:43:03:5f:21:41:94:e7:69:
                    6a:42:12:b8:d8:4b:d4:3a:59:fc:4c:d4:3a:1d:46:
                    21:b5:28:e3:31:23:52:0a:a3:07:b9:8b:0a:b3:3b:
                    ab:11:8c:6c:53:f4:66:5b:38:a6:04:fa:ee:5b:d0:
                    5f:76:43:6f:59:fb:c0:19:03:5f:eb:bc:10:90:40:
                    c6:7f:22:b5:35:eb:43:b6:29:d5:58:a0:8e:81:d8:
                    db:b1:b4:ad:66:fa:1f:e8:fc:69:95:90:cd:15:57:
                    ae:7f
                Exponent: 65537 (0x10001)
        X509v3 extensions:
            X509v3 Basic Constraints: 
                CA:FALSE
            X509v3 Subject Key Identifier: 
                5C:6B:DA:69:90:70:DE:D6:E7:77:95:27:EF:3E:45:FB:A3:5E:EE:3C
            X509v3 Authority Key Identifier: 
                keyid:84:DF:0F:23:83:2F:42:77:88:21:5E:17:8A:33:EA:3F:25:3E:F7:81
                DirName:/CN=ChangeMe
                serial:5C:1A:C3:0C:DF:11:54:AA:63:A1:5C:85:4F:08:4F:3E:2B:BC:65:E7

            X509v3 Extended Key Usage: 
                TLS Web Server Authentication
            X509v3 Key Usage: 
                Digital Signature, Key Encipherment
            X509v3 Subject Alternative Name: 
                DNS:vpn-server-fr-conflict
    Signature Algorithm: sha256WithRSAEncryption
         9c:34:c5:1e:98:12:52:da:80:3f:f2:28:a2:40:9f:51:6e:e4:
         b9:0f:0b:30:7c:d9:fe:ce:08:ae:72:01:89:15:c3:8d:0d:cc:
         b7:bb:76:f8:6c:8d:65:6c:c1:27:95:22:d5:db:de:2b:06:02:
         a6:63:2b:0c:f8:24:16:40:c8:50:1a:e0:98:94:54:c7:86:e4:
         fb:c4:71:ac:48:86:6c:83:19:7d:5a:06:cd:e4:64:86:e8:12:
         4a:bd:23:f6:20:59:7e:16:b1:78:37:59:bc:a2:7f:ea:6e:3d:
         af:08:38:6f:ce:20:a4:87:79:1e:63:6e:c4:73:be:35:5f:f9:
         0d:94:fe:2a:37:47:35:80:e8:0a:c7:f9:d5:37:33:52:36:46:
         d1:2e:72:96:ae:1e:e1:e0:67:2d:62:7a:2a:2b:40:b3:64:4c:
         5b:1f:8c:47:f7:4a:ac:a4:00:e8:83:e5:0e:8b:e9:6e:8f:07:
         51:3b:81:b8:d4:78:a0:f1:e3:bd:66:91:05:14:2e:fb:f3:4c:
         3b:0d:cd:df:9e:96:c9:5f:99:19:74:93:4f:ea:8d:a7:20:cb:
         f2:34:b7:28:92:d7:a6:7c:e6:5e:c1:d8:2a:ae:9a:04:c0:af:
         f4:c6:9b:b5:56:2f:4e:d2:60:86:71:86:bf:5d:ee:c0:30:47:
         85:a3:dc:e1
-----BEGIN CERTIFICATE-----
MIIDgTCCAmmgAwIBAgIQTyOQCcFNnghRg6P+HCbe/jANBgkqhkiG9w0BAQsFADAT
MREwDwYDVQQDDAhDaGFuZ2VNZTAeFw0yNTExMjIxOTI3NDNaFw0yODAyMjUxOTI3
NDNaMCExHzAdBgNVBAMMFnZwbi1zZXJ2ZXItZnItY29uZmxpY3QwggEiMA0GCSqG
SIb3DQEBAQUAA4IBDwAwggEKAoIBAQD4mE9qark6bMlIs5WdNQSxMje/DjpfGCBt
jj8yUWMQ2GnPq7sDyphKsD+cybkiY5KDzDvJEfwsgT3GrnT2sRoQ/yf0CXUROHlB
iBLIJF9d6b0Do/OEjas0TlHdv/PgPgRkyfMWHh/NzL0DxwhNgqFegazRX1S5mYco
kHWUv2VG8vt1uHNJxWYVJZbDVo6HJEvXBNxbRifO27hVmmtDA18hQZTnaWpCErjY
S9Q6WfxM1DodRiG1KOMxI1IKowe5iwqzO6sRjGxT9GZbOKYE+u5b0F92Q29Z+8AZ
A1/rvBCQQMZ/IrU160O2KdVYoI6B2NuxtK1m+h/o/GmVkM0VV65/AgMBAAGjgcIw
gb8wCQYDVR0TBAIwADAdBgNVHQ4EFgQUXGvaaZBw3tbnd5Un7z5F+6Ne7jwwTgYD
VR0jBEcwRYAUhN8PI4MvQneIIV4XijPqPyU+94GhF6QVMBMxETAPBgNVBAMMCENo
YW5nZU1lghRcGsMM3xFUqmOhXIVPCE8+K7xl5zATBgNVHSUEDDAKBggrBgEFBQcD
ATALBgNVHQ8EBAMCBaAwIQYDVR0RBBowGIIWdnBuLXNlcnZlci1mci1jb25mbGlj
dDANBgkqhkiG9w0BAQsFAAOCAQEAnDTFHpgSUtqAP/IookCfUW7kuQ8LMHzZ/s4I
rnIBiRXDjQ3Mt7t2+GyNZWzBJ5Ui1dveKwYCpmMrDPgkFkDIUBrgmJRUx4bk+8Rx
rEiGbIMZfVoGzeRkhugSSr0j9iBZfhaxeDdZvKJ/6m49rwg4b84gpId5HmNuxHO+
NV/5DZT+KjdHNYDoCsf51TczUjZG0S5ylq4e4eBnLWJ6KitAs2RMWx+MR/dKrKQA
6IPlDovpbo8HUTuBuNR4oPHjvWaRBRQu+/NMOw3N356WyV+ZGXSTT+qNpyDL8jS3
KJLXpnzmXsHYKq6aBMCv9MabtVYvTtJghnGGv13uwDBHhaPc4Q==
-----END CERTIFICATE-----
