Certificate:
    Data:
        Version: 3 (0x2)
        Serial Number:
            67:3b:9d:84:d2:a7:a7:be:64:36:12:94:9a:bf:b4:85
        Signature Algorithm: sha256WithRSAEncryption
        Issuer: CN=ChangeMe
        Validity
            Not Before: Nov 22 19:27:00 2025 GMT
            Not After : Feb 25 19:27:00 2028 GMT
        Subject: CN=vpn-server-uk-conflict
        Subject Public Key Info:
            Public Key Algorithm: rsaEncryption
                RSA Public-Key: (2048 bit)
                Modulus:
                    00:e1:5f:cf:4c:24:7b:df:fa:4e:dc:fd:ca:63:09:
                    a7:02:05:39:c2:13:d4:25:10:b0:63:c6:65:90:e1:
                    45:43:66:8e:3e:b8:80:52:e0:9d:c4:d0:af:1d:9c:
                    e9:3e:48:60:77:ef:13:f4:b0:98:3b:cb:96:03:e5:
                    b2:12:3e:c5:82:61:55:a4:b7:ad:dc:df:88:81:03:
                    cc:11:ab:f9:91:80:47:8b:72:a6:ce:7f:ab:ef:fc:
                    6c:3d:7f:91:d3:e6:f6:0e:06:fe:ce:d4:8a:e6:47:
                    e1:8c:48:49:42:18:2b:28:3f:d0:de:eb:50:83:09:
                    a1:36:1c:af:9c:f2:aa:b7:d7:8a:63:5d:a1:0f:17:
                    dd:28:40:37:f5:94:d5:d9:41:35:4c:d8:fe:08:d3:
                    42:e0:4c:31:76:42:56:b0:c1:9f:3f:08:ee:0b:67:
                    41:ac:a0:47:4f:87:04:41:89:66:6d:e5:90:b5:b6:
                    bb:48:91:02:ac:19:1b:94:1d:a1:4f:82:b2:ad:14:
                    80:1b:f6:d4:91:92:21:22:69:62:73:af:60:40:54:
                    4e:25:e1:9c:fe:e8:5c:66:81:64:63:c3:e8:2c:03:
                    33:45:ad:bc:92:17:9d:71:3e:7f:3e:35:9e:26:d3:
                    38:51:68:67:23:ed:f9:e9:02:6d:11:78:e2:75:12:
                    67:bb
                Exponent: 65537 (0x10001)
        X509v3 extensions:
            X509v3 Basic Constraints: 
                CA:FALSE
            X509v3 Subject Key Identifier: 
                1D:27:3E:EE:9C:BC:25:C3:03:E9:B3:49:14:7D:09:19:00:53:40:FF
            X509v3 Authority Key Identifier: 
                keyid:52:F8:EF:FC:31:0B:C5:4E:39:6F:C4:24:F4:EA:C2:9D:AD:5A:31:48
                DirName:/CN=ChangeMe
                serial:27:97:3B:7B:2F:C5:1A:A5:25:08:25:37:EC:D7:49:F6:D4:3C:DB:1C

            X509v3 Extended Key Usage: 
                TLS Web Server Authentication
            X509v3 Key Usage: 
                Digital Signature, Key Encipherment
            X509v3 Subject Alternative Name: 
                DNS:vpn-server-uk-conflict
    Signature Algorithm: sha256WithRSAEncryption
         82:5d:51:1d:d6:44:e6:73:6e:44:ef:e1:fa:89:cd:6a:89:4d:
         21:bf:2d:20:03:33:e5:c9:c9:08:62:30:1c:e6:15:21:6d:65:
         a4:40:36:08:98:14:74:fb:cc:3b:f4:5c:fa:07:c1:63:40:38:
         32:51:76:ca:0d:0a:3b:32:74:50:06:d9:91:2d:7c:bc:70:fa:
         53:50:2f:06:44:6f:ab:fe:f3:4b:cd:be:52:d2:86:5f:35:ef:
         8a:fe:cd:a1:4f:b9:5f:e7:fe:23:dd:5f:6f:b2:fd:56:a8:86:
         4d:4e:fc:20:d2:34:54:3c:d5:0d:a2:b7:e0:4d:1e:c9:e9:49:
         c2:24:fc:c5:fb:19:56:6e:a4:69:86:81:cd:0a:ce:c2:bd:de:
         dd:e2:84:0a:15:20:23:36:e7:f2:26:97:68:45:4a:12:58:32:
         c7:a4:bb:b9:9d:e6:6f:09:c7:e0:56:be:f9:e4:ad:cb:72:d1:
         b9:c5:8e:91:6a:cb:2d:71:a8:67:37:5d:4c:f2:1b:f4:58:45:
         67:a5:9b:1d:35:f5:22:e8:a7:a3:09:6e:ec:7c:27:8f:70:34:
         bd:44:5c:94:93:64:30:c6:95:98:72:94:2c:a9:ab:d1:82:5a:
         35:0c:ef:af:79:48:80:54:44:2e:7a:85:8c:54:a7:c2:ac:e3:
         5f:0c:fe:4a
-----BEGIN CERTIFICATE-----
MIIDgTCCAmmgAwIBAgIQZzudhNKnp75kNhKUmr+0hTANBgkqhkiG9w0BAQsFADAT
MREwDwYDVQQDDAhDaGFuZ2VNZTAeFw0yNTExMjIxOTI3MDBaFw0yODAyMjUxOTI3
MDBaMCExHzAdBgNVBAMMFnZwbi1zZXJ2ZXItdWstY29uZmxpY3QwggEiMA0GCSqG
SIb3DQEBAQUAA4IBDwAwggEKAoIBAQDhX89MJHvf+k7c/cpjCacCBTnCE9QlELBj
xmWQ4UVDZo4+uIBS4J3E0K8dnOk+SGB37xP0sJg7y5YD5bISPsWCYVWkt63c34iB
A8wRq/mRgEeLcqbOf6vv/Gw9f5HT5vYOBv7O1IrmR+GMSElCGCsoP9De61CDCaE2
HK+c8qq314pjXaEPF90oQDf1lNXZQTVM2P4I00LgTDF2QlawwZ8/CO4LZ0GsoEdP
hwRBiWZt5ZC1trtIkQKsGRuUHaFPgrKtFIAb9tSRkiEiaWJzr2BAVE4l4Zz+6Fxm
gWRjw+gsAzNFrbySF51xPn8+NZ4m0zhRaGcj7fnpAm0ReOJ1Eme7AgMBAAGjgcIw
gb8wCQYDVR0TBAIwADAdBgNVHQ4EFgQUHSc+7py8JcMD6bNJFH0JGQBTQP8wTgYD
VR0jBEcwRYAUUvjv/DELxU45b8Qk9OrCna1aMUihF6QVMBMxETAPBgNVBAMMCENo
YW5nZU1lghQnlzt7L8UapSUIJTfs10n21DzbHDATBgNVHSUEDDAKBggrBgEFBQcD
ATALBgNVHQ8EBAMCBaAwIQYDVR0RBBowGIIWdnBuLXNlcnZlci11ay1jb25mbGlj
dDANBgkqhkiG9w0BAQsFAAOCAQEAgl1RHdZE5nNuRO/h+onNaolNIb8tIAMz5cnJ
CGIwHOYVIW1lpEA2CJgUdPvMO/Rc+gfBY0A4MlF2yg0KOzJ0UAbZkS18vHD6U1Av
BkRvq/7zS82+UtKGXzXviv7NoU+5X+f+I91fb7L9VqiGTU78INI0VDzVDaK34E0e
yelJwiT8xfsZVm6kaYaBzQrOwr3e3eKEChUgIzbn8iaXaEVKElgyx6S7uZ3mbwnH
4Fa++eSty3LRucWOkWrLLXGoZzddTPIb9FhFZ6WbHTX1Iuinowlu7Hwnj3A0vURc
lJNkMMaVmHKULKmr0YJaNQzvr3lIgFRELnqFjFSnwqzjXwz+Sg==
-----END CERTIFICATE-----
