Certificate:
    Data:
        Version: 3 (0x2)
        Serial Number:
            85:ca:e1:28:b3:15:f2:9b:f8:94:f8:78:d6:1a:e1:ce
        Signature Algorithm: sha256WithRSAEncryption
        Issuer: CN=ChangeMe
        Validity
            Not Before: Nov 22 19:26:33 2025 GMT
            Not After : Feb 25 19:26:33 2028 GMT
        Subject: CN=vpn-server-uk
        Subject Public Key Info:
            Public Key Algorithm: rsaEncryption
                RSA Public-Key: (2048 bit)
                Modulus:
                    00:ae:20:0c:97:b5:fe:40:76:f6:e3:b6:10:f2:71:
                    69:02:df:38:01:30:e0:7e:dc:7e:84:47:01:bb:97:
                    9d:70:b3:ad:2e:23:2a:84:60:92:5c:e1:94:73:2c:
                    6d:cd:69:90:0f:77:6a:82:fc:14:bb:bc:2d:10:30:
                    71:fa:94:79:da:cb:11:4f:6e:1d:ff:1e:2a:ea:19:
                    9c:26:59:54:b5:20:db:66:7a:54:21:c5:a8:30:6e:
                    69:20:4a:8d:b7:8c:26:32:c7:c8:56:4e:89:02:c3:
                    61:68:2a:49:b0:f5:db:43:58:bf:63:52:ca:09:71:
                    6f:84:02:d5:e7:94:b6:90:6a:28:44:7a:79:8d:69:
                    f2:fa:ee:63:65:84:be:ce:27:21:77:97:7e:07:b3:
                    f5:7d:d2:43:a7:20:1d:d3:93:2e:e9:76:16:e5:33:
                    64:db:88:aa:0a:34:8d:c3:e7:d5:a8:17:88:a1:95:
                    5d:29:5c:e8:fb:d4:b1:0f:6d:9b:d3:ab:ff:30:8f:
                    5e:e3:6b:a1:01:f7:23:38:3f:a8:2e:3e:aa:1e:4b:
                    ae:56:12:f6:a4:89:01:e7:75:98:db:f4:24:f1:86:
                    b9:62:93:e1:3a:2d:6d:aa:5a:14:3a:be:ec:3a:66:
                    f3:c5:70:5a:67:90:ea:24:77:11:16:c6:6d:6d:3e:
                    ac:95
                Exponent: 65537 (0x10001)
        X509v3 extensions:
            X509v3 Basic Constraints: 
                CA:FALSE
            X509v3 Subject Key Identifier: 
                3A:34:66:B7:77:53:9F:53:2C:1C:32:B1:3B:70:15:10:62:37:F4:CC
            X509v3 Authority Key Identifier: 
                keyid:02:EB:44:E2:9B:B3:45:7C:85:B5:77:1D:D7:CA:AE:DB:FB:10:BD:0C
                DirName:/CN=ChangeMe
                serial:59:47:00:FE:1B:DA:C0:41:56:6F:81:6B:8D:68:D5:6B:90:28:3E:E2

            X509v3 Extended Key Usage: 
                TLS Web Server Authentication
            X509v3 Key Usage: 
                Digital Signature, Key Encipherment
            X509v3 Subject Alternative Name: 
                DNS:vpn-server-uk
    Signature Algorithm: sha256WithRSAEncryption
         7d:96:39:79:08:d0:2b:1c:3d:6b:f3:52:4f:6d:8d:e0:f8:18:
         b1:66:b3:b2:28:96:db:b2:91:48:08:b0:f0:10:be:49:79:de:
         09:f5:69:0d:ab:ff:0a:fe:17:51:26:32:2a:b8:44:b1:df:08:
         6d:d3:fa:57:ad:c9:ae:7c:16:da:cb:d8:d1:e2:f9:51:5e:1b:
         d5:39:89:69:f3:7c:59:67:b1:d6:5d:01:4b:d5:b2:e3:21:e8:
         20:42:d7:62:86:b7:c5:85:aa:9d:eb:83:a6:32:2f:f7:64:88:
         3b:1e:0b:d9:0d:79:13:21:91:0b:b7:9f:21:60:bf:20:8c:1f:
         8a:f5:88:bc:57:37:ed:76:50:49:68:15:8a:91:c0:83:21:ad:
         56:77:ae:77:2b:e9:ce:d8:3b:1d:4d:58:c6:f5:f3:57:9a:33:
         8e:99:eb:96:03:e4:d2:44:20:d4:00:7a:78:de:3c:68:d1:2b:
         e7:ca:0a:b8:d9:64:6d:dc:05:f0:38:96:e4:7f:8b:97:c1:a6:
         0f:a2:c7:51:e4:e4:2a:e6:8c:30:cd:f5:62:8c:3a:90:d2:be:
         7e:a8:88:fc:d2:3f:8d:61:a0:12:55:c8:ca:66:98:0a:04:76:
         68:b0:84:81:e8:6d:57:96:15:85:f0:c2:ef:04:73:0c:96:c3:
         6d:c7:e5:41
-----BEGIN CERTIFICATE-----
MIIDcDCCAligAwIBAgIRAIXK4SizFfKb+JT4eNYa4c4wDQYJKoZIhvcNAQELBQAw
EzERMA8GA1UEAwwIQ2hhbmdlTWUwHhcNMjUxMTIyMTkyNjMzWhcNMjgwMjI1MTky
NjMzWjAYMRYwFAYDVQQDDA12cG4tc2VydmVyLXVrMIIBIjANBgkqhkiG9w0BAQEF
AAOCAQ8AMIIBCgKCAQEAriAMl7X+QHb247YQ8nFpAt84ATDgftx+hEcBu5edcLOt
LiMqhGCSXOGUcyxtzWmQD3dqgvwUu7wtEDBx+pR52ssRT24d/x4q6hmcJllUtSDb
ZnpUIcWoMG5pIEqNt4wmMsfIVk6JAsNhaCpJsPXbQ1i/Y1LKCXFvhALV55S2kGoo
RHp5jWny+u5jZYS+zichd5d+B7P1fdJDpyAd05Mu6XYW5TNk24iqCjSNw+fVqBeI
oZVdKVzo+9SxD22b06v/MI9e42uhAfcjOD+oLj6qHkuuVhL2pIkB53WY2/Qk8Ya5
YpPhOi1tqloUOr7sOmbzxXBaZ5DqJHcRFsZtbT6slQIDAQABo4G5MIG2MAkGA1Ud
EwQCMAAwHQYDVR0OBBYEFDo0Zrd3U59TLBwysTtwFRBiN/TMME4GA1UdIwRHMEWA
FALrROKbs0V8hbV3HdfKrtv7EL0MoRekFTATMREwDwYDVQQDDAhDaGFuZ2VNZYIU
WUcA/hvawEFWb4FrjWjVa5AoPuIwEwYDVR0lBAwwCgYIKwYBBQUHAwEwCwYDVR0P
BAQDAgWgMBgGA1UdEQQRMA+CDXZwbi1zZXJ2ZXItdWswDQYJKoZIhvcNAQELBQAD
ggEBAH2WOXkI0CscPWvzUk9tjeD4GLFms7IoltuykUgIsPAQvkl53gn1aQ2r/wr+
F1EmMiq4RLHfCG3T+letya58FtrL2NHi+VFeG9U5iWnzfFlnsdZdAUvVsuMh6CBC
12KGt8WFqp3rg6YyL/dkiDseC9kNeRMhkQu3nyFgvyCMH4r1iLxXN+12UEloFYqR
wIMhrVZ3rncr6c7YOx1NWMb181eaM46Z65YD5NJEINQAenjePGjRK+fKCrjZZG3c
BfA4luR/i5fBpg+ix1Hk5CrmjDDN9WKMOpDSvn6oiPzSP41hoBJVyMpmmAoEdmiw
hIHobVeWFYXwwu8EcwyWw23H5UE=
-----END CERTIFICATE-----
